; Function Attrs: mustprogress nofree norecurse nosync nounwind willreturn memory(read, inaccessiblemem: none) uwtable
define internal noundef range(i32 0, 65536) i32 @_ZL28ucnv_io_countStandardAliasesP12UEnumerationP10UErrorCode(ptr noundef readonly captures(none) %0, ptr readnone captures(none) %1) #10 {
  %3 = getelementptr inbounds nuw i8, ptr %0, i64 8
  %4 = load ptr, ptr %3, align 8, !tbaa !53
  %5 = load i32, ptr %4, align 4, !tbaa !50
  %.not = icmp eq i32 %5, 0
  br i1 %.not, label %12, label %6

6:                                                ; preds = %2
  %7 = load ptr, ptr getelementptr inbounds nuw (i8, ptr @_ZL10gMainTable, i64 40), align 8, !tbaa !39
  %8 = zext i32 %5 to i64
  %9 = getelementptr inbounds nuw i16, ptr %7, i64 %8
  %10 = load i16, ptr %9, align 2, !tbaa !22
  %11 = zext i16 %10 to i32
  br label %12

12:                                               ; preds = %6, %2
  %.0 = phi i32 [ %11, %6 ], [ 0, %2 ]
  ret i32 %.0
}